target datalayout = "e-m:e-p270:32:32-p271:32:32-p272:64:64-i64:64-i128:128-f80:128-n8:16:32:64-S128"
target triple = "x86_64-unknown-linux-gnu"

%"class.smt::eq_justification" = type { ptr }
%class.dl_graph = type { %"struct.dl_graph<smt::theory_special_relations::int_ext>::stats", %class.vector.1, %class.vector.2, %class.vector.3, %class.vector.4, %class.vector.4, %class.svector.5, %class.vector.1, %class.svector.7, %class.svector.9, %class.svector.9, %class.heap, i32, i32, %class.svector.9, %class.svector.7, %class.svector.9, %class.svector.9, %class.svector.9, i32, i32, %class.svector.11, %class.svector.9, i32, i32, %class.svector.9, %class.svector.9, %class.svector.9, %class.svector.9, %"struct.dl_graph<smt::theory_special_relations::int_ext>::dfs_state", %"struct.dl_graph<smt::theory_special_relations::int_ext>::dfs_state" }
%"struct.dl_graph<smt::theory_special_relations::int_ext>::stats" = type { i32, i32, i32, i32, i32 }
%class.vector.2 = type { ptr }
%class.vector.3 = type { ptr }
%class.vector.4 = type { ptr }
%class.svector.5 = type { %class.vector.6 }
%class.vector.6 = type { ptr }
%class.vector.1 = type { ptr }
%class.heap = type { %class.dl_var_lt, %class.svector.9, %class.svector.9 }
%class.dl_var_lt = type { ptr }
%class.svector.7 = type { %class.vector.8 }
%class.vector.8 = type { ptr }
%class.svector.11 = type { %class.vector.12 }
%class.vector.12 = type { ptr }
%class.svector.9 = type { %class.vector.10 }
%class.vector.10 = type { ptr }
%"struct.dl_graph<smt::theory_special_relations::int_ext>::dfs_state" = type <{ %class.vector.1, %class.svector.9, %class.svector.9, %class.heap.13, i32, [4 x i8] }>
%class.heap.13 = type { %"class.dl_graph<smt::theory_special_relations::int_ext>::dfs_state::hp_lt", %class.svector.9, %class.svector.9 }
%"class.dl_graph<smt::theory_special_relations::int_ext>::dfs_state::hp_lt" = type { ptr, ptr }
%class.svector.16 = type { %class.vector.17 }
%class.vector.17 = type { ptr }
%class.s_integer = type { i32 }
%"class.smt::theory" = type <{ ptr, i32, [4 x i8], ptr, ptr, %class.ptr_vector.43, %class.svector.11, i32, i8, [3 x i8] }>
%class.ptr_vector.43 = type { %class.vector.44 }
%class.vector.44 = type { ptr }
%class.dl_edge = type <{ i32, i32, %class.s_integer, i32, %class.svector.16, i8, [7 x i8] }>
%"class.smt::enode" = type { ptr, ptr, ptr, ptr, i32, i32, i32, i16, i32, i8, i8, %class.ptr_vector.43, %class.id_var_list, %"struct.smt::trans_justification", %class.approx_set, %class.approx_set, [0 x ptr] }
%class.id_var_list = type { i32, ptr }
%"struct.smt::trans_justification" = type { ptr, %"class.smt::eq_justification" }
%class.approx_set = type { %class.approx_set_tpl }
%class.approx_set_tpl = type { i64 }

@.str.14 = private unnamed_addr constant [120 x i8] c"generated/home/dtcxzyw/WorkSpace/Projects/compilers/llvm-opt-benchmark/bench/z3/z3/src/smt/theory_special_relations.cpp\00", align 1
@.str.18 = private unnamed_addr constant [65 x i8] c"Failed to verify: g.add_strict_edge(src, dst, literal_vector())\0A\00", align 1

; Function Attrs: mustprogress nounwind uwtable
define linkonce_odr hidden void @_ZN6vectorIN3sat7literalELb0EjEC2Ev(ptr noundef nonnull align 8 dereferenceable(8) %this) unnamed_addr #4 comdat align 2 {
entry:
  %this.addr = alloca ptr, align 8
  store ptr %this, ptr %this.addr, align 8
  %this1 = load ptr, ptr %this.addr, align 8
  %m_data = getelementptr inbounds %class.vector.17, ptr %this1, i32 0, i32 0
  store ptr null, ptr %m_data, align 8
  ret void
}

; Function Attrs: mustprogress nounwind uwtable
define linkonce_odr hidden noundef nonnull align 8 dereferenceable(8) ptr @_ZNK6vectorIPN3smt5enodeELb0EjEixEj(ptr noundef nonnull align 8 dereferenceable(8) %this, i32 noundef %idx) #4 comdat align 2 {
entry:
  %this.addr = alloca ptr, align 8
  %idx.addr = alloca i32, align 4
  store ptr %this, ptr %this.addr, align 8
  store i32 %idx, ptr %idx.addr, align 4
  %this1 = load ptr, ptr %this.addr, align 8
  %m_data = getelementptr inbounds %class.vector.44, ptr %this1, i32 0, i32 0
  %0 = load ptr, ptr %m_data, align 8
  %1 = load i32, ptr %idx.addr, align 4
  %idxprom = zext i32 %1 to i64
  %arrayidx = getelementptr inbounds ptr, ptr %0, i64 %idxprom
  ret ptr %arrayidx
}

; Function Attrs: mustprogress nounwind uwtable
define linkonce_odr hidden noundef i32 @_ZNK7dl_edgeIN3smt24theory_special_relations7int_extEE10get_targetEv(ptr noundef nonnull align 8 dereferenceable(25) %this) #4 comdat align 2 {
entry:
  %this.addr = alloca ptr, align 8
  store ptr %this, ptr %this.addr, align 8
  %this1 = load ptr, ptr %this.addr, align 8
  %m_target = getelementptr inbounds %class.dl_edge, ptr %this1, i32 0, i32 1
  %0 = load i32, ptr %m_target, align 4
  ret i32 %0
}

; Function Attrs: mustprogress nounwind uwtable
define linkonce_odr hidden noundef i32 @_ZNK7dl_edgeIN3smt24theory_special_relations7int_extEE10get_sourceEv(ptr noundef nonnull align 8 dereferenceable(25) %this) #4 comdat align 2 {
entry:
  %this.addr = alloca ptr, align 8
  store ptr %this, ptr %this.addr, align 8
  %this1 = load ptr, ptr %this.addr, align 8
  %m_source = getelementptr inbounds %class.dl_edge, ptr %this1, i32 0, i32 0
  %0 = load i32, ptr %m_source, align 8
  ret i32 %0
}

; Function Attrs: mustprogress nounwind uwtable
define linkonce_odr hidden noundef zeroext i1 @_ZeqRK9s_integerS1_(ptr noundef nonnull align 4 dereferenceable(4) %r1, ptr noundef nonnull align 4 dereferenceable(4) %r2) #4 comdat {
entry:
  %r1.addr = alloca ptr, align 8
  %r2.addr = alloca ptr, align 8
  store ptr %r1, ptr %r1.addr, align 8
  store ptr %r2, ptr %r2.addr, align 8
  %0 = load ptr, ptr %r1.addr, align 8
  %m_val = getelementptr inbounds %class.s_integer, ptr %0, i32 0, i32 0
  %1 = load i32, ptr %m_val, align 4
  %2 = load ptr, ptr %r2.addr, align 8
  %m_val1 = getelementptr inbounds %class.s_integer, ptr %2, i32 0, i32 0
  %3 = load i32, ptr %m_val1, align 4
  %cmp = icmp eq i32 %1, %3
  ret i1 %cmp
}

; Function Attrs: mustprogress nounwind uwtable
define linkonce_odr hidden noundef nonnull align 4 dereferenceable(4) ptr @_ZNK7dl_edgeIN3smt24theory_special_relations7int_extEE10get_weightEv(ptr noundef nonnull align 8 dereferenceable(25) %this) #4 comdat align 2 {
entry:
  %this.addr = alloca ptr, align 8
  store ptr %this, ptr %this.addr, align 8
  %this1 = load ptr, ptr %this.addr, align 8
  %m_weight = getelementptr inbounds %class.dl_edge, ptr %this1, i32 0, i32 2
  ret ptr %m_weight
}

; Function Attrs: mustprogress nounwind uwtable
define linkonce_odr hidden noundef zeroext i1 @_ZNK7dl_edgeIN3smt24theory_special_relations7int_extEE10is_enabledEv(ptr noundef nonnull align 8 dereferenceable(25) %this) #4 comdat align 2 {
entry:
  %this.addr = alloca ptr, align 8
  store ptr %this, ptr %this.addr, align 8
  %this1 = load ptr, ptr %this.addr, align 8
  %m_enabled = getelementptr inbounds %class.dl_edge, ptr %this1, i32 0, i32 5
  %0 = load i8, ptr %m_enabled, align 8
  %tobool = trunc i8 %0 to i1
  ret i1 %tobool
}

; Function Attrs: mustprogress nounwind uwtable
define linkonce_odr hidden noundef nonnull align 8 dereferenceable(25) ptr @_ZNK6vectorI7dl_edgeIN3smt24theory_special_relations7int_extEELb1EjEixEj(ptr noundef nonnull align 8 dereferenceable(8) %this, i32 noundef %idx) #4 comdat align 2 {
entry:
  %this.addr = alloca ptr, align 8
  %idx.addr = alloca i32, align 4
  store ptr %this, ptr %this.addr, align 8
  store i32 %idx, ptr %idx.addr, align 4
  %this1 = load ptr, ptr %this.addr, align 8
  %m_data = getelementptr inbounds %class.vector.3, ptr %this1, i32 0, i32 0
  %0 = load ptr, ptr %m_data, align 8
  %1 = load i32, ptr %idx.addr, align 4
  %idxprom = zext i32 %1 to i64
  %arrayidx = getelementptr inbounds %class.dl_edge, ptr %0, i64 %idxprom
  ret ptr %arrayidx
}

; Function Attrs: mustprogress nounwind uwtable
define linkonce_odr hidden noundef i32 @_ZNK6vectorI7dl_edgeIN3smt24theory_special_relations7int_extEELb1EjE4sizeEv(ptr noundef nonnull align 8 dereferenceable(8) %this) #4 comdat align 2 {
entry:
  %retval = alloca i32, align 4
  %this.addr = alloca ptr, align 8
  store ptr %this, ptr %this.addr, align 8
  %this1 = load ptr, ptr %this.addr, align 8
  %m_data = getelementptr inbounds %class.vector.3, ptr %this1, i32 0, i32 0
  %0 = load ptr, ptr %m_data, align 8
  %cmp = icmp eq ptr %0, null
  br i1 %cmp, label %if.then, label %if.end

if.then:                                          ; preds = %entry
  store i32 0, ptr %retval, align 4
  br label %return

if.end:                                           ; preds = %entry
  %m_data2 = getelementptr inbounds %class.vector.3, ptr %this1, i32 0, i32 0
  %1 = load ptr, ptr %m_data2, align 8
  %arrayidx = getelementptr inbounds i32, ptr %1, i64 -1
  %2 = load i32, ptr %arrayidx, align 4
  store i32 %2, ptr %retval, align 4
  br label %return

return:                                           ; preds = %if.end, %if.then
  %3 = load i32, ptr %retval, align 4
  ret i32 %3
}

; Function Attrs: mustprogress nounwind uwtable
define linkonce_odr hidden void @_ZN7svectorIN3sat7literalEjEC2Ev(ptr noundef nonnull align 8 dereferenceable(8) %this) unnamed_addr #4 comdat align 2 {
entry:
  %this.addr = alloca ptr, align 8
  store ptr %this, ptr %this.addr, align 8
  %this1 = load ptr, ptr %this.addr, align 8
  %0 = getelementptr inbounds i8, ptr %this1, i64 0
  call void @llvm.memset.p0.i64(ptr align 8 %0, i8 0, i64 8, i1 false)
  call void @_ZN6vectorIN3sat7literalELb0EjEC2Ev(ptr noundef nonnull align 8 dereferenceable(8) %this1) #3
  ret void
}

; Function Attrs: mustprogress nounwind uwtable
define linkonce_odr hidden noundef ptr @_ZNK3smt5enode8get_rootEv(ptr noundef nonnull align 8 dereferenceable(112) %this) #4 comdat align 2 {
entry:
  %this.addr = alloca ptr, align 8
  store ptr %this, ptr %this.addr, align 8
  %this1 = load ptr, ptr %this.addr, align 8
  %m_root = getelementptr inbounds %"class.smt::enode", ptr %this1, i32 0, i32 1
  %0 = load ptr, ptr %m_root, align 8
  ret ptr %0
}

; Function Attrs: mustprogress nounwind uwtable
define linkonce_odr hidden noundef ptr @_ZNK3smt6theory9get_enodeEi(ptr noundef nonnull align 8 dereferenceable(53) %this, i32 noundef %v) #4 comdat align 2 {
entry:
  %this.addr = alloca ptr, align 8
  %v.addr = alloca i32, align 4
  store ptr %this, ptr %this.addr, align 8
  store i32 %v, ptr %v.addr, align 4
  %this1 = load ptr, ptr %this.addr, align 8
  %m_var2enode = getelementptr inbounds %"class.smt::theory", ptr %this1, i32 0, i32 5
  %0 = load i32, ptr %v.addr, align 4
  %call = call noundef nonnull align 8 dereferenceable(8) ptr @_ZNK6vectorIPN3smt5enodeELb0EjEixEj(ptr noundef nonnull align 8 dereferenceable(8) %m_var2enode, i32 noundef %0)
  %1 = load ptr, ptr %call, align 8
  ret ptr %1
}

; Function Attrs: mustprogress nounwind uwtable
define linkonce_odr hidden noundef i32 @_ZNK8dl_graphIN3smt24theory_special_relations7int_extEE10get_targetEi(ptr noundef nonnull align 8 dereferenceable(368) %this, i32 noundef %id) #4 comdat align 2 {
entry:
  %this.addr = alloca ptr, align 8
  %id.addr = alloca i32, align 4
  store ptr %this, ptr %this.addr, align 8
  store i32 %id, ptr %id.addr, align 4
  %this1 = load ptr, ptr %this.addr, align 8
  %m_edges = getelementptr inbounds %class.dl_graph, ptr %this1, i32 0, i32 3
  %0 = load i32, ptr %id.addr, align 4
  %call = call noundef nonnull align 8 dereferenceable(25) ptr @_ZNK6vectorI7dl_edgeIN3smt24theory_special_relations7int_extEELb1EjEixEj(ptr noundef nonnull align 8 dereferenceable(8) %m_edges, i32 noundef %0)
  %call2 = call noundef i32 @_ZNK7dl_edgeIN3smt24theory_special_relations7int_extEE10get_targetEv(ptr noundef nonnull align 8 dereferenceable(25) %call)
  ret i32 %call2
}

; Function Attrs: mustprogress nounwind uwtable
define linkonce_odr hidden noundef i32 @_ZNK8dl_graphIN3smt24theory_special_relations7int_extEE10get_sourceEi(ptr noundef nonnull align 8 dereferenceable(368) %this, i32 noundef %id) #4 comdat align 2 {
entry:
  %this.addr = alloca ptr, align 8
  %id.addr = alloca i32, align 4
  store ptr %this, ptr %this.addr, align 8
  store i32 %id, ptr %id.addr, align 4
  %this1 = load ptr, ptr %this.addr, align 8
  %m_edges = getelementptr inbounds %class.dl_graph, ptr %this1, i32 0, i32 3
  %0 = load i32, ptr %id.addr, align 4
  %call = call noundef nonnull align 8 dereferenceable(25) ptr @_ZNK6vectorI7dl_edgeIN3smt24theory_special_relations7int_extEELb1EjEixEj(ptr noundef nonnull align 8 dereferenceable(8) %m_edges, i32 noundef %0)
  %call2 = call noundef i32 @_ZNK7dl_edgeIN3smt24theory_special_relations7int_extEE10get_sourceEv(ptr noundef nonnull align 8 dereferenceable(25) %call)
  ret i32 %call2
}

; Function Attrs: mustprogress uwtable
define linkonce_odr hidden noundef zeroext i1 @_ZneRK9s_integerS1_(ptr noundef nonnull align 4 dereferenceable(4) %r1, ptr noundef nonnull align 4 dereferenceable(4) %r2) #5 comdat {
entry:
  %r1.addr = alloca ptr, align 8
  %r2.addr = alloca ptr, align 8
  store ptr %r1, ptr %r1.addr, align 8
  store ptr %r2, ptr %r2.addr, align 8
  %0 = load ptr, ptr %r1.addr, align 8
  %1 = load ptr, ptr %r2.addr, align 8
  %call = call noundef zeroext i1 @_ZeqRK9s_integerS1_(ptr noundef nonnull align 4 dereferenceable(4) %0, ptr noundef nonnull align 4 dereferenceable(4) %1)
  %lnot = xor i1 %call, true
  ret i1 %lnot
}

; Function Attrs: mustprogress nounwind uwtable
define linkonce_odr hidden void @_ZN9s_integerC2Ei(ptr noundef nonnull align 4 dereferenceable(4) %this, i32 noundef %n) unnamed_addr #4 comdat align 2 {
entry:
  %this.addr = alloca ptr, align 8
  %n.addr = alloca i32, align 4
  store ptr %this, ptr %this.addr, align 8
  store i32 %n, ptr %n.addr, align 4
  %this1 = load ptr, ptr %this.addr, align 8
  %m_val = getelementptr inbounds %class.s_integer, ptr %this1, i32 0, i32 0
  %0 = load i32, ptr %n.addr, align 4
  store i32 %0, ptr %m_val, align 4
  ret void
}

; Function Attrs: mustprogress nounwind uwtable
define linkonce_odr hidden noundef nonnull align 4 dereferenceable(4) ptr @_ZNK8dl_graphIN3smt24theory_special_relations7int_extEE10get_weightEi(ptr noundef nonnull align 8 dereferenceable(368) %this, i32 noundef %id) #4 comdat align 2 {
entry:
  %this.addr = alloca ptr, align 8
  %id.addr = alloca i32, align 4
  store ptr %this, ptr %this.addr, align 8
  store i32 %id, ptr %id.addr, align 4
  %this1 = load ptr, ptr %this.addr, align 8
  %m_edges = getelementptr inbounds %class.dl_graph, ptr %this1, i32 0, i32 3
  %0 = load i32, ptr %id.addr, align 4
  %call = call noundef nonnull align 8 dereferenceable(25) ptr @_ZNK6vectorI7dl_edgeIN3smt24theory_special_relations7int_extEELb1EjEixEj(ptr noundef nonnull align 8 dereferenceable(8) %m_edges, i32 noundef %0)
  %call2 = call noundef nonnull align 4 dereferenceable(4) ptr @_ZNK7dl_edgeIN3smt24theory_special_relations7int_extEE10get_weightEv(ptr noundef nonnull align 8 dereferenceable(25) %call)
  ret ptr %call2
}

; Function Attrs: mustprogress uwtable
define linkonce_odr hidden noundef zeroext i1 @_ZNK8dl_graphIN3smt24theory_special_relations7int_extEE10is_enabledEi(ptr noundef nonnull align 8 dereferenceable(368) %this, i32 noundef %id) #5 comdat align 2 {
entry:
  %this.addr = alloca ptr, align 8
  %id.addr = alloca i32, align 4
  store ptr %this, ptr %this.addr, align 8
  store i32 %id, ptr %id.addr, align 4
  %this1 = load ptr, ptr %this.addr, align 8
  %m_edges = getelementptr inbounds %class.dl_graph, ptr %this1, i32 0, i32 3
  %0 = load i32, ptr %id.addr, align 4
  %call = call noundef nonnull align 8 dereferenceable(25) ptr @_ZNK6vectorI7dl_edgeIN3smt24theory_special_relations7int_extEELb1EjEixEj(ptr noundef nonnull align 8 dereferenceable(8) %m_edges, i32 noundef %0)
  %call2 = call noundef zeroext i1 @_ZNK7dl_edgeIN3smt24theory_special_relations7int_extEE10is_enabledEv(ptr noundef nonnull align 8 dereferenceable(25) %call)
  ret i1 %call2
}

; Function Attrs: mustprogress nounwind uwtable
define linkonce_odr hidden noundef i32 @_ZNK8dl_graphIN3smt24theory_special_relations7int_extEE13get_num_edgesEv(ptr noundef nonnull align 8 dereferenceable(368) %this) #4 comdat align 2 {
entry:
  %this.addr = alloca ptr, align 8
  store ptr %this, ptr %this.addr, align 8
  %this1 = load ptr, ptr %this.addr, align 8
  %m_edges = getelementptr inbounds %class.dl_graph, ptr %this1, i32 0, i32 3
  %call = call noundef i32 @_ZNK6vectorI7dl_edgeIN3smt24theory_special_relations7int_extEELb1EjE4sizeEv(ptr noundef nonnull align 8 dereferenceable(8) %m_edges)
  ret i32 %call
}

; Function Attrs: mustprogress uwtable
define hidden void @_ZN3smt24theory_special_relations13ensure_strictERNS0_5graphE(ptr noundef nonnull align 8 dereferenceable(145) %this, ptr noundef nonnull align 8 dereferenceable(368) %g) #5 align 2 personality ptr @__gxx_personality_v0 {
entry:
  %this.addr = alloca ptr, align 8
  %g.addr = alloca ptr, align 8
  %sz = alloca i32, align 4
  %i = alloca i32, align 4
  %ref.tmp = alloca %class.s_integer, align 4
  %src = alloca i32, align 4
  %dst = alloca i32, align 4
  %ref.tmp16 = alloca %class.svector.16, align 8
  %exn.slot = alloca ptr, align 8
  %ehselector.slot = alloca i32, align 4
  store ptr %this, ptr %this.addr, align 8
  store ptr %g, ptr %g.addr, align 8
  %this1 = load ptr, ptr %this.addr, align 8
  %0 = load ptr, ptr %g.addr, align 8
  %call = call noundef i32 @_ZNK8dl_graphIN3smt24theory_special_relations7int_extEE13get_num_edgesEv(ptr noundef nonnull align 8 dereferenceable(368) %0)
  store i32 %call, ptr %sz, align 4
  store i32 0, ptr %i, align 4
  br label %for.cond

for.cond:                                         ; preds = %for.inc, %entry
  %1 = load i32, ptr %i, align 4
  %2 = load i32, ptr %sz, align 4
  %cmp = icmp ult i32 %1, %2
  br i1 %cmp, label %for.body, label %for.end

for.body:                                         ; preds = %for.cond
  %3 = load ptr, ptr %g.addr, align 8
  %4 = load i32, ptr %i, align 4
  %call2 = call noundef zeroext i1 @_ZNK8dl_graphIN3smt24theory_special_relations7int_extEE10is_enabledEi(ptr noundef nonnull align 8 dereferenceable(368) %3, i32 noundef %4)
  br i1 %call2, label %if.end, label %if.then

if.then:                                          ; preds = %for.body
  br label %for.inc

if.end:                                           ; preds = %for.body
  %5 = load ptr, ptr %g.addr, align 8
  %6 = load i32, ptr %i, align 4
  %call3 = call noundef nonnull align 4 dereferenceable(4) ptr @_ZNK8dl_graphIN3smt24theory_special_relations7int_extEE10get_weightEi(ptr noundef nonnull align 8 dereferenceable(368) %5, i32 noundef %6)
  call void @_ZN9s_integerC2Ei(ptr noundef nonnull align 4 dereferenceable(4) %ref.tmp, i32 noundef 0)
  %call4 = call noundef zeroext i1 @_ZneRK9s_integerS1_(ptr noundef nonnull align 4 dereferenceable(4) %call3, ptr noundef nonnull align 4 dereferenceable(4) %ref.tmp)
  br i1 %call4, label %if.then5, label %if.end6

if.then5:                                         ; preds = %if.end
  br label %for.inc

if.end6:                                          ; preds = %if.end
  %7 = load ptr, ptr %g.addr, align 8
  %8 = load i32, ptr %i, align 4
  %call7 = call noundef i32 @_ZNK8dl_graphIN3smt24theory_special_relations7int_extEE10get_sourceEi(ptr noundef nonnull align 8 dereferenceable(368) %7, i32 noundef %8)
  store i32 %call7, ptr %src, align 4
  %9 = load ptr, ptr %g.addr, align 8
  %10 = load i32, ptr %i, align 4
  %call8 = call noundef i32 @_ZNK8dl_graphIN3smt24theory_special_relations7int_extEE10get_targetEi(ptr noundef nonnull align 8 dereferenceable(368) %9, i32 noundef %10)
  store i32 %call8, ptr %dst, align 4
  %11 = load i32, ptr %src, align 4
  %call9 = call noundef ptr @_ZNK3smt6theory9get_enodeEi(ptr noundef nonnull align 8 dereferenceable(53) %this1, i32 noundef %11)
  %call10 = call noundef ptr @_ZNK3smt5enode8get_rootEv(ptr noundef nonnull align 8 dereferenceable(112) %call9)
  %12 = load i32, ptr %dst, align 4
  %call11 = call noundef ptr @_ZNK3smt6theory9get_enodeEi(ptr noundef nonnull align 8 dereferenceable(53) %this1, i32 noundef %12)
  %call12 = call noundef ptr @_ZNK3smt5enode8get_rootEv(ptr noundef nonnull align 8 dereferenceable(112) %call11)
  %cmp13 = icmp eq ptr %call10, %call12
  br i1 %cmp13, label %if.then14, label %if.end15

if.then14:                                        ; preds = %if.end6
  br label %for.inc

if.end15:                                         ; preds = %if.end6
  %13 = load ptr, ptr %g.addr, align 8
  %14 = load i32, ptr %src, align 4
  %15 = load i32, ptr %dst, align 4
  call void @_ZN7svectorIN3sat7literalEjEC2Ev(ptr noundef nonnull align 8 dereferenceable(8) %ref.tmp16)
  %call17 = invoke noundef zeroext i1 @_ZN3smt24theory_special_relations5graph15add_strict_edgeEiiRK7svectorIN3sat7literalEjE(ptr noundef nonnull align 8 dereferenceable(368) %13, i32 noundef %14, i32 noundef %15, ptr noundef nonnull align 8 dereferenceable(8) %ref.tmp16)
          to label %invoke.cont unwind label %lpad

invoke.cont:                                      ; preds = %if.end15
  %lnot = xor i1 %call17, true
  call void @_ZN7svectorIN3sat7literalEjED2Ev(ptr noundef nonnull align 8 dereferenceable(8) %ref.tmp16) #3
  br i1 %lnot, label %if.then18, label %if.end19

if.then18:                                        ; preds = %invoke.cont
  call void @_Z26notify_assertion_violationPKciS0_(ptr noundef @.str.14, i32 noundef 715, ptr noundef @.str.18)
  call void @exit(i32 noundef 114) #14
  unreachable

lpad:                                             ; preds = %if.end15
  %16 = landingpad { ptr, i32 }
          cleanup
  %17 = extractvalue { ptr, i32 } %16, 0
  store ptr %17, ptr %exn.slot, align 8
  %18 = extractvalue { ptr, i32 } %16, 1
  store i32 %18, ptr %ehselector.slot, align 4
  call void @_ZN7svectorIN3sat7literalEjED2Ev(ptr noundef nonnull align 8 dereferenceable(8) %ref.tmp16) #3
  br label %eh.resume

if.end19:                                         ; preds = %invoke.cont
  br label %for.inc

for.inc:                                          ; preds = %if.end19, %if.then14, %if.then5, %if.then
  %19 = load i32, ptr %i, align 4
  %inc = add i32 %19, 1
  store i32 %inc, ptr %i, align 4
  br label %for.cond, !llvm.loop !25

for.end:                                          ; preds = %for.cond
  ret void

eh.resume:                                        ; preds = %lpad
  %exn = load ptr, ptr %exn.slot, align 8
  %sel = load i32, ptr %ehselector.slot, align 4
  %lpad.val = insertvalue { ptr, i32 } poison, ptr %exn, 0
  %lpad.val20 = insertvalue { ptr, i32 } %lpad.val, i32 %sel, 1
  resume { ptr, i32 } %lpad.val20
}