; Function Attrs: mustprogress uwtable
define hidden void @_ZN3smt24theory_special_relations13ensure_strictERNS0_5graphE(ptr nocapture noundef nonnull readonly align 8 dereferenceable(145) %this, ptr noundef nonnull align 8 dereferenceable(368) %g) local_unnamed_addr #3 align 2 personality ptr @__gxx_personality_v0 {
entry:
  %ref.tmp16 = alloca %class.svector.16, align 8
  %m_edges.i = getelementptr inbounds i8, ptr %g, i64 40
  %0 = load ptr, ptr %m_edges.i, align 8
  %cmp.i.i = icmp eq ptr %0, null
  br i1 %cmp.i.i, label %for.end, label %_ZNK8dl_graphIN3smt24theory_special_relations7int_extEE13get_num_edgesEv.exit

_ZNK8dl_graphIN3smt24theory_special_relations7int_extEE13get_num_edgesEv.exit: ; preds = %entry
  %arrayidx.i.i = getelementptr inbounds i8, ptr %0, i64 -4
  %1 = load i32, ptr %arrayidx.i.i, align 4
  %cmp28.not = icmp eq i32 %1, 0
  br i1 %cmp28.not, label %for.end, label %for.body.lr.ph

for.body.lr.ph:                                   ; preds = %_ZNK8dl_graphIN3smt24theory_special_relations7int_extEE13get_num_edgesEv.exit
  %m_var2enode.i = getelementptr inbounds i8, ptr %this, i64 32
  %wide.trip.count = zext i32 %1 to i64
  br label %for.body

for.body:                                         ; preds = %for.body.lr.ph, %for.inc
  %indvars.iv = phi i64 [ 0, %for.body.lr.ph ], [ %indvars.iv.next, %for.inc ]
  %2 = load ptr, ptr %m_edges.i, align 8
  %m_enabled.i.i = getelementptr inbounds %class.dl_edge, ptr %2, i64 %indvars.iv, i32 5
  %3 = load i8, ptr %m_enabled.i.i, align 8
  %4 = and i8 %3, 1
  %tobool.i.i.not = icmp eq i8 %4, 0
  br i1 %tobool.i.i.not, label %for.inc, label %if.end

if.end:                                           ; preds = %for.body
  %m_weight.i.i = getelementptr inbounds %class.dl_edge, ptr %2, i64 %indvars.iv, i32 2
  %5 = load i32, ptr %m_weight.i.i, align 4
  %cmp.i.i16.not = icmp eq i32 %5, 0
  br i1 %cmp.i.i16.not, label %if.end6, label %for.inc

if.end6:                                          ; preds = %if.end
  %arrayidx.i.i19 = getelementptr inbounds %class.dl_edge, ptr %2, i64 %indvars.iv
  %6 = load i32, ptr %arrayidx.i.i19, align 8
  %m_target.i.i = getelementptr inbounds %class.dl_edge, ptr %2, i64 %indvars.iv, i32 1
  %7 = load i32, ptr %m_target.i.i, align 4
  %8 = load ptr, ptr %m_var2enode.i, align 8
  %idxprom.i.i22 = zext i32 %6 to i64
  %arrayidx.i.i23 = getelementptr inbounds ptr, ptr %8, i64 %idxprom.i.i22
  %9 = load ptr, ptr %arrayidx.i.i23, align 8
  %m_root.i = getelementptr inbounds i8, ptr %9, i64 8
  %10 = load ptr, ptr %m_root.i, align 8
  %idxprom.i.i25 = zext i32 %7 to i64
  %arrayidx.i.i26 = getelementptr inbounds ptr, ptr %8, i64 %idxprom.i.i25
  %11 = load ptr, ptr %arrayidx.i.i26, align 8
  %m_root.i27 = getelementptr inbounds i8, ptr %11, i64 8
  %12 = load ptr, ptr %m_root.i27, align 8
  %cmp13 = icmp eq ptr %10, %12
  br i1 %cmp13, label %for.inc, label %if.end15

if.end15:                                         ; preds = %if.end6
  store ptr null, ptr %ref.tmp16, align 8
  %call17 = invoke noundef zeroext i1 @_ZN3smt24theory_special_relations5graph15add_strict_edgeEiiRK7svectorIN3sat7literalEjE(ptr noundef nonnull align 8 dereferenceable(368) %g, i32 noundef %6, i32 noundef %7, ptr noundef nonnull align 8 dereferenceable(8) %ref.tmp16)
          to label %invoke.cont unwind label %lpad

invoke.cont:                                      ; preds = %if.end15
  %13 = load ptr, ptr %ref.tmp16, align 8
  %tobool.not.i.i.i = icmp eq ptr %13, null
  br i1 %tobool.not.i.i.i, label %_ZN7svectorIN3sat7literalEjED2Ev.exit, label %if.then.i.i.i

if.then.i.i.i:                                    ; preds = %invoke.cont
  %add.ptr.i.i.i.i = getelementptr inbounds i8, ptr %13, i64 -8
  invoke void @_ZN6memory10deallocateEPv(ptr noundef nonnull %add.ptr.i.i.i.i)
          to label %_ZN7svectorIN3sat7literalEjED2Ev.exit unwind label %terminate.lpad.i.i

terminate.lpad.i.i:                               ; preds = %if.then.i.i.i
  %14 = landingpad { ptr, i32 }
          catch ptr null
  %15 = extractvalue { ptr, i32 } %14, 0
  call void @__clang_call_terminate(ptr %15) #21
  unreachable

_ZN7svectorIN3sat7literalEjED2Ev.exit:            ; preds = %invoke.cont, %if.then.i.i.i
  br i1 %call17, label %for.inc, label %if.then18

if.then18:                                        ; preds = %_ZN7svectorIN3sat7literalEjED2Ev.exit
  call void @_Z26notify_assertion_violationPKciS0_(ptr noundef nonnull @.str.14, i32 noundef 715, ptr noundef nonnull @.str.18)
  call void @exit(i32 noundef 114) #21
  unreachable

lpad:                                             ; preds = %if.end15
  %16 = landingpad { ptr, i32 }
          cleanup
  call void @_ZN7svectorIN3sat7literalEjED2Ev(ptr noundef nonnull align 8 dereferenceable(8) %ref.tmp16) #22
  resume { ptr, i32 } %16

for.inc:                                          ; preds = %_ZN7svectorIN3sat7literalEjED2Ev.exit, %if.end6, %if.end, %for.body
  %indvars.iv.next = add nuw nsw i64 %indvars.iv, 1
  %exitcond.not = icmp eq i64 %indvars.iv.next, %wide.trip.count
  br i1 %exitcond.not, label %for.end, label %for.body, !llvm.loop !47

for.end:                                          ; preds = %for.inc, %entry, %_ZNK8dl_graphIN3smt24theory_special_relations7int_extEE13get_num_edgesEv.exit
  ret void
}